target datalayout = "e-m:e-p270:32:32-p271:32:32-p272:64:64-i64:64-i128:128-f80:128-n8:16:32:64-S128"
target triple = "x86_64-pc-linux-gnu"

; Function Attrs: mustprogress nounwind uwtable
define linkonce_odr dso_local noundef float @_ZSt4sqrtf(float noundef %0) #5 comdat {
  %2 = alloca float, align 4
  store float %0, ptr %2, align 4
  %3 = load float, ptr %2, align 4
  %4 = call float @sqrtf(float noundef %3) #3
  ret float %4
}

; Function Attrs: mustprogress nounwind uwtable
define linkonce_odr dso_local void @_ZSt4swapIfENSt9enable_ifIXsr6__and_ISt6__not_ISt15__is_tuple_likeIT_EESt21is_move_constructibleIS3_ESt18is_move_assignableIS3_EEE5valueEvE4typeERS3_SC_(ptr noundef nonnull align 4 dereferenceable(4) %0, ptr noundef nonnull align 4 dereferenceable(4) %1) #5 comdat {
  %3 = alloca ptr, align 8
  %4 = alloca ptr, align 8
  %5 = alloca float, align 4
  store ptr %0, ptr %3, align 8
  store ptr %1, ptr %4, align 8
  %6 = load ptr, ptr %3, align 8
  %7 = load float, ptr %6, align 4
  store float %7, ptr %5, align 4
  %8 = load ptr, ptr %4, align 8
  %9 = load float, ptr %8, align 4
  %10 = load ptr, ptr %3, align 8
  store float %9, ptr %10, align 4
  %11 = load float, ptr %5, align 4
  %12 = load ptr, ptr %4, align 8
  store float %11, ptr %12, align 4
  ret void
}

; Function Attrs: mustprogress uwtable
define hidden noundef float @_ZN4nori7fresnelEfff(float noundef %0, float noundef %1, float noundef %2) #4 {
  %4 = alloca float, align 4
  %5 = alloca float, align 4
  %6 = alloca float, align 4
  %7 = alloca float, align 4
  %8 = alloca float, align 4
  %9 = alloca float, align 4
  %10 = alloca float, align 4
  %11 = alloca float, align 4
  %12 = alloca float, align 4
  %13 = alloca float, align 4
  %14 = alloca float, align 4
  store float %0, ptr %5, align 4
  store float %1, ptr %6, align 4
  store float %2, ptr %7, align 4
  %15 = load float, ptr %6, align 4
  store float %15, ptr %8, align 4
  %16 = load float, ptr %7, align 4
  store float %16, ptr %9, align 4
  %17 = load float, ptr %6, align 4
  %18 = load float, ptr %7, align 4
  %19 = fcmp oeq float %17, %18
  br i1 %19, label %20, label %21

20:                                               ; preds = %3
  store float 0.000000e+00, ptr %4, align 4
  br label %81

21:                                               ; preds = %3
  %22 = load float, ptr %5, align 4
  %23 = fcmp olt float %22, 0.000000e+00
  br i1 %23, label %24, label %27

24:                                               ; preds = %21
  call void @_ZSt4swapIfENSt9enable_ifIXsr6__and_ISt6__not_ISt15__is_tuple_likeIT_EESt21is_move_constructibleIS3_ESt18is_move_assignableIS3_EEE5valueEvE4typeERS3_SC_(ptr noundef nonnull align 4 dereferenceable(4) %8, ptr noundef nonnull align 4 dereferenceable(4) %9) #3
  %25 = load float, ptr %5, align 4
  %26 = fneg float %25
  store float %26, ptr %5, align 4
  br label %27

27:                                               ; preds = %24, %21
  %28 = load float, ptr %8, align 4
  %29 = load float, ptr %9, align 4
  %30 = fdiv float %28, %29
  store float %30, ptr %10, align 4
  %31 = load float, ptr %10, align 4
  %32 = load float, ptr %10, align 4
  %33 = fmul float %31, %32
  %34 = load float, ptr %5, align 4
  %35 = load float, ptr %5, align 4
  %36 = fneg float %34
  %37 = call float @llvm.fmuladd.f32(float %36, float %35, float 1.000000e+00)
  %38 = fmul float %33, %37
  store float %38, ptr %11, align 4
  %39 = load float, ptr %11, align 4
  %40 = fcmp ogt float %39, 1.000000e+00
  br i1 %40, label %41, label %42

41:                                               ; preds = %27
  store float 1.000000e+00, ptr %4, align 4
  br label %81

42:                                               ; preds = %27
  %43 = load float, ptr %11, align 4
  %44 = fsub float 1.000000e+00, %43
  %45 = call noundef float @_ZSt4sqrtf(float noundef %44)
  store float %45, ptr %12, align 4
  %46 = load float, ptr %8, align 4
  %47 = load float, ptr %5, align 4
  %48 = load float, ptr %9, align 4
  %49 = load float, ptr %12, align 4
  %50 = fmul float %48, %49
  %51 = fneg float %50
  %52 = call float @llvm.fmuladd.f32(float %46, float %47, float %51)
  %53 = load float, ptr %8, align 4
  %54 = load float, ptr %5, align 4
  %55 = load float, ptr %9, align 4
  %56 = load float, ptr %12, align 4
  %57 = fmul float %55, %56
  %58 = call float @llvm.fmuladd.f32(float %53, float %54, float %57)
  %59 = fdiv float %52, %58
  store float %59, ptr %13, align 4
  %60 = load float, ptr %9, align 4
  %61 = load float, ptr %5, align 4
  %62 = load float, ptr %8, align 4
  %63 = load float, ptr %12, align 4
  %64 = fmul float %62, %63
  %65 = fneg float %64
  %66 = call float @llvm.fmuladd.f32(float %60, float %61, float %65)
  %67 = load float, ptr %9, align 4
  %68 = load float, ptr %5, align 4
  %69 = load float, ptr %8, align 4
  %70 = load float, ptr %12, align 4
  %71 = fmul float %69, %70
  %72 = call float @llvm.fmuladd.f32(float %67, float %68, float %71)
  %73 = fdiv float %66, %72
  store float %73, ptr %14, align 4
  %74 = load float, ptr %13, align 4
  %75 = load float, ptr %13, align 4
  %76 = load float, ptr %14, align 4
  %77 = load float, ptr %14, align 4
  %78 = fmul float %76, %77
  %79 = call float @llvm.fmuladd.f32(float %74, float %75, float %78)
  %80 = fdiv float %79, 2.000000e+00
  store float %80, ptr %4, align 4
  br label %81

81:                                               ; preds = %42, %41, %20
  %82 = load float, ptr %4, align 4
  ret float %82
}