; Function Attrs: mustprogress nofree nounwind willreturn memory(write) uwtable
define hidden noundef float @_ZN4nori7fresnelEfff(float noundef %0, float noundef %1, float noundef %2) local_unnamed_addr #16 {
  %4 = fcmp oeq float %1, %2
  br i1 %4, label %30, label %5

5:                                                ; preds = %3
  %6 = fcmp olt float %0, 0.000000e+00
  %7 = fneg float %0
  %.034 = select i1 %6, float %2, float %1
  %.033 = select i1 %6, float %1, float %2
  %.025 = select i1 %6, float %7, float %0
  %8 = fdiv float %.034, %.033
  %9 = fmul float %8, %8
  %10 = fneg float %.025
  %11 = tail call float @llvm.fmuladd.f32(float %10, float %.025, float 1.000000e+00)
  %12 = fmul float %11, %9
  %13 = fcmp ogt float %12, 1.000000e+00
  br i1 %13, label %30, label %14

14:                                               ; preds = %5
  %15 = fsub float 1.000000e+00, %12
  %16 = tail call noundef float @sqrtf(float noundef %15) #26
  %17 = fmul float %.033, %16
  %18 = fneg float %17
  %19 = tail call float @llvm.fmuladd.f32(float %.034, float %.025, float %18)
  %20 = tail call float @llvm.fmuladd.f32(float %.034, float %.025, float %17)
  %21 = fdiv float %19, %20
  %22 = fmul float %.034, %16
  %23 = fneg float %22
  %24 = tail call float @llvm.fmuladd.f32(float %.033, float %.025, float %23)
  %25 = tail call float @llvm.fmuladd.f32(float %.033, float %.025, float %22)
  %26 = fdiv float %24, %25
  %27 = fmul float %26, %26
  %28 = tail call float @llvm.fmuladd.f32(float %21, float %21, float %27)
  %29 = fmul float %28, 5.000000e-01
  br label %30

30:                                               ; preds = %5, %3, %14
  %.0 = phi float [ %29, %14 ], [ 0.000000e+00, %3 ], [ 1.000000e+00, %5 ]
  ret float %.0
}